(lp0
(lp1
I102
aI117
aI160
aI281
aI399
aI424
aI439
aI574
aI676
aI679
aI771
aI805
aI852
aI858
aI936
aI1232
aI1326
aI1344
aI1381
aI1483
aI1489
aI1531
aI1544
aI1547
aI1679
aI1688
aI1849
aI1513
aa(lp2
I0
aI68
aI101
aI112
aI142
aI177
aI273
aI470
aI482
aI560
aI570
aI593
aI665
aI951
aI997
aI1003
aI1017
aI1091
aI1163
aI1243
aI1248
aI1300
aI1319
aI1360
aI1363
aI1413
aI1428
aI1453
aI1460
aI1496
aI1525
aI1555
aI1569
aI1648
aI1668
aI1714
aI1798
aI1802
aI1299
aI76
aa(lp3
I53
aI213
aI266
aI328
aI330
aI346
aI364
aI520
aI542
aI558
aI662
aI744
aI745
aI801
aI1048
aI1206
aI1252
aI1436
aI1533
aI1561
aI1578
aI1694
aI1998
aa(lp4
I108
aI127
aI140
aI250
aI369
aI421
aI445
aI467
aI573
aI583
aI816
aI863
aI1043
aI1104
aI1238
aI1307
aI1391
aI1394
aI1425
aI1434
aI1463
aI1706
aI1767
aI1768
aI1814
aI1875
aI1918
aI1962
aI891
aI636
aI1755
aa(lp5
I83
aI212
aI262
aI331
aI386
aI412
aI668
aI700
aI789
aI865
aI878
aI1115
aI1166
aI1220
aI1246
aI1439
aI1586
aI1604
aI1605
aI1651
aI1774
aI1808
aI1947
aI1636
aI674
aI122
aa(lp6
I234
aI243
aI516
aI580
aI748
aI790
aI796
aI819
aI849
aI987
aI1001
aI1077
aI1159
aI1261
aI1290
aI1500
aI1863
aI1872
aI1986
aI1443
aI246
aa(lp7
I31
aI88
aI151
aI235
aI329
aI375
aI415
aI423
aI638
aI783
aI798
aI902
aI939
aI964
aI1056
aI1079
aI1087
aI1200
aI1217
aI1239
aI1314
aI1324
aI1407
aI1488
aI1499
aI1563
aI1611
aI1905
aI1911
aI1921
aI1942
aI1946
aI1957
aI980
aI1497
aa(lp8
I63
aI100
aI107
aI237
aI272
aI339
aI606
aI608
aI729
aI747
aI757
aI871
aI912
aI1052
aI1147
aI1231
aI1321
aI1389
aI1484
aI1487
aI1522
aI1823
aI1193
aI1934
aa(lp9
I23
aI154
aI192
aI197
aI199
aI254
aI282
aI283
aI286
aI307
aI452
aI537
aI618
aI649
aI658
aI682
aI694
aI755
aI770
aI804
aI826
aI840
aI976
aI1026
aI1033
aI1070
aI1202
aI1271
aI1304
aI1343
aI1405
aI1432
aI1493
aI1501
aI1546
aI1568
aI1652
aI1765
aI1896
aI1941
aI1956
aI946
aI737
aI1518
aa(lp10
I4
aI111
aI136
aI182
aI215
aI217
aI259
aI260
aI321
aI435
aI511
aI556
aI678
aI690
aI761
aI1144
aI1162
aI1201
aI1210
aI1253
aI1352
aI1371
aI1444
aI1473
aI1596
aI1607
aI1613
aI1618
aI1669
aI1973
aI1993
aI332
aI1140
aI1076
aa(lp11
I6
aI20
aI48
aI188
aI218
aI257
aI290
aI305
aI466
aI720
aI753
aI892
aI968
aI1095
aI1120
aI1139
aI1155
aI1260
aI1270
aI1356
aI1623
aI1649
aI1858
aI1889
aI1917
aI373
aI1888
aI1097
aa(lp12
I34
aI61
aI81
aI258
aI317
aI363
aI376
aI450
aI551
aI648
aI695
aI706
aI799
aI928
aI932
aI979
aI1035
aI1050
aI1060
aI1375
aI1395
aI1403
aI1440
aI1503
aI1512
aI1573
aI1575
aI1654
aI1666
aI1690
aI1712
aI1773
aI1789
aI1877
aI1264
aI800
aI780
aI78
aa(lp13
I80
aI138
aI180
aI279
aI313
aI322
aI535
aI692
aI894
aI952
aI954
aI1006
aI1029
aI1039
aI1063
aI1188
aI1274
aI1383
aI1398
aI1550
aI1590
aI1608
aI1626
aI1645
aI1736
aI1807
aI1855
aI1967
aI84
aI1134
aa(lp14
I230
aI419
aI508
aI617
aI623
aI657
aI693
aI793
aI864
aI1180
aI1218
aI1230
aI1295
aI1386
aI1404
aI1537
aI1787
aI288
aI394
aa(lp15
I49
aI223
aI428
aI446
aI502
aI541
aI735
aI961
aI1071
aI1094
aI1241
aI1250
aI1335
aI1799
aI1924
aI1978
aI794
aI103
aI821
aI704
aI959
aI1824
aa(lp16
I40
aI54
aI60
aI231
aI265
aI337
aI382
aI433
aI647
aI859
aI969
aI1047
aI1074
aI1096
aI1105
aI1145
aI1156
aI1170
aI1570
aI1576
aI1638
aI1661
aI1870
aI175
aa(lp17
I118
aI194
aI242
aI304
aI342
aI454
aI475
aI493
aI517
aI539
aI568
aI654
aI688
aI707
aI847
aI861
aI1216
aI1334
aI1442
aI1508
aI1603
aI1691
aI1740
aI1748
aI1770
aI1780
aI1874
aI1943
aI1970
aI1930
aI660
aI935
aa(lp18
I29
aI128
aI236
aI314
aI343
aI460
aI534
aI552
aI630
aI646
aI671
aI713
aI766
aI772
aI778
aI797
aI809
aI812
aI818
aI931
aI995
aI1157
aI1318
aI1337
aI1339
aI1543
aI1572
aI1656
aI1733
aI1754
aI1854
aI1887
aI1961
aI1964
aI501
aI974
aI1136
aI589
aa(lp19
I38
aI52
aI125
aI158
aI168
aI195
aI203
aI267
aI498
aI503
aI559
aI754
aI815
aI1062
aI1085
aI1093
aI1132
aI1182
aI1192
aI1211
aI1213
aI1221
aI1281
aI1283
aI1485
aI1559
aI1673
aI1750
aI1772
aI1853
aI1945
aI1988
aI1994
aI1530
aI1285
aI253
aI379
aI1892
aa(lp20
I39
aI71
aI73
aI99
aI135
aI256
aI340
aI476
aI714
aI732
aI846
aI904
aI922
aI924
aI1005
aI1301
aI1448
aI1632
aI1640
aI1653
aI1671
aI1684
aI1710
aI1822
aI1869
aI1890
aI1836
aI1392
aI1305
aa(lp21
I43
aI55
aI82
aI96
aI106
aI174
aI179
aI249
aI306
aI348
aI405
aI442
aI513
aI528
aI727
aI756
aI781
aI919
aI945
aI967
aI1009
aI1010
aI1092
aI1226
aI1308
aI1475
aI1675
aI1692
aI1705
aI1739
aI1745
aI1782
aI1790
aI1833
aI1857
aI1908
aI1954
aI1861
aa(lp22
I44
aI130
aI327
aI359
aI742
aI810
aI1149
aI1171
aI1491
aI1511
aI1552
aI1663
aI1757
aI1818
aI1856
aI1931
aI1055
aI1884
aI1864
aI750
aa(lp23
I16
aI25
aI264
aI365
aI377
aI485
aI490
aI509
aI625
aI634
aI675
aI752
aI763
aI773
aI867
aI1059
aI1146
aI1256
aI1263
aI1385
aI1554
aI1628
aI1637
aI1717
aI1783
aI1786
aI1860
aI993
aI838
aI165
aa(lp24
I14
aI79
aI263
aI291
aI536
aI546
aI581
aI614
aI765
aI822
aI876
aI886
aI947
aI963
aI1028
aI1064
aI1067
aI1117
aI1345
aI1437
aI1465
aI1469
aI1476
aI1700
aI1784
aI1821
aI1914
aI1951
aI868
aI1686
aa(lp25
I5
aI7
aI19
aI50
aI64
aI69
aI87
aI119
aI141
aI146
aI147
aI178
aI211
aI224
aI248
aI295
aI297
aI368
aI410
aI458
aI499
aI523
aI526
aI543
aI557
aI590
aI599
aI607
aI612
aI622
aI664
aI667
aI701
aI709
aI726
aI740
aI795
aI808
aI823
aI834
aI926
aI940
aI953
aI955
aI956
aI999
aI1007
aI1013
aI1022
aI1024
aI1100
aI1102
aI1114
aI1123
aI1137
aI1152
aI1165
aI1167
aI1177
aI1179
aI1195
aI1236
aI1247
aI1267
aI1310
aI1316
aI1347
aI1358
aI1370
aI1393
aI1396
aI1397
aI1399
aI1402
aI1420
aI1422
aI1472
aI1479
aI1510
aI1529
aI1542
aI1548
aI1551
aI1595
aI1602
aI1658
aI1674
aI1683
aI1697
aI1718
aI1721
aI1724
aI1729
aI1730
aI1781
aI1796
aI1826
aI1828
aI1958
aI1972
aI1981
aI1997
aI1999
aI1912
aI1933
aa(lp26
I8
aI59
aI93
aI133
aI220
aI271
aI309
aI370
aI497
aI538
aI548
aI627
aI739
aI1018
aI1089
aI1112
aI1273
aI1278
aI1329
aI1350
aI1377
aI1515
aI1650
aI1715
aI1222
aI1759
aI191
aI456
aa(lp27
I134
aI167
aI239
aI269
aI275
aI278
aI299
aI385
aI414
aI420
aI461
aI544
aI564
aI566
aI659
aI689
aI738
aI825
aI948
aI1045
aI1190
aI1272
aI1351
aI1459
aI1464
aI1558
aI1565
aI1620
aI1634
aI1703
aI1899
aI1903
aI601
aa(lp28
I13
aI113
aI193
aI285
aI347
aI432
aI448
aI453
aI545
aI687
aI734
aI784
aI848
aI856
aI962
aI977
aI1172
aI1313
aI1342
aI1419
aI1438
aI1456
aI1536
aI1617
aI1642
aI1698
aI1727
aI1800
aI1840
aI1865
aI1871
aI1897
aI1902
aI1989
aI1820
aI681
aI176
aI1280
aa(lp29
I129
aI139
aI148
aI209
aI326
aI444
aI471
aI521
aI527
aI613
aI651
aI758
aI787
aI829
aI830
aI872
aI874
aI937
aI989
aI1051
aI1081
aI1118
aI1178
aI1268
aI1315
aI1349
aI1601
aI1722
aI1832
aI1835
aI1936
aI1977
aI491
aa(lp30
I37
aI183
aI585
aI880
aI918
aI1023
aI1119
aI1148
aI1199
aI1269
aI1282
aI1288
aI1379
aI1416
aI1527
aI1909
aI396
aa(lp31
I86
aI89
aI169
aI198
aI344
aI381
aI455
aI495
aI604
aI779
aI791
aI814
aI860
aI916
aI1015
aI1130
aI1142
aI1151
aI1262
aI1296
aI1328
aI1985
aI1987
aa(lp32
I196
aI201
aI416
aI418
aI457
aI478
aI489
aI567
aI577
aI591
aI702
aI722
aI762
aI909
aI933
aI934
aI960
aI1186
aI1242
aI1276
aI1317
aI1364
aI1468
aI1481
aI1567
aI1761
aI1949
aI1983
aI1990
aI1995
aI1175
aa(lp33
I150
aI159
aI210
aI430
aI463
aI510
aI525
aI637
aI685
aI836
aI907
aI1021
aI1141
aI1225
aI1265
aI1323
aI1378
aI1415
aI1431
aI1447
aI1462
aI1471
aI1720
aI1769
aI1851
aI1873
aa(lp34
I35
aI85
aI97
aI341
aI395
aI398
aI401
aI402
aI436
aI494
aI512
aI656
aI716
aI890
aI1113
aI1135
aI1240
aI1330
aI1454
aI1621
aI1742
aI1763
aI1850
aI1991
aa(lp35
I12
aI152
aI289
aI293
aI312
aI315
aI336
aI354
aI407
aI479
aI587
aI603
aI705
aI905
aI985
aI1031
aI1154
aI1214
aI1372
aI1400
aI1414
aI1523
aI1616
aI1687
aI1793
aI287
aI1841
aI393
aa(lp36
I65
aI75
aI181
aI216
aI411
aI481
aI832
aI1068
aI1082
aI1106
aI1160
aI1184
aI1298
aI1480
aI1538
aI1560
aI1574
aI1834
aI1843
aI1882
aI469
aI1038
aI1980
aI1292
aa(lp37
I70
aI116
aI149
aI261
aI576
aI645
aI866
aI896
aI914
aI1072
aI1209
aI1631
aI1709
aI1760
aI1866
aI1868
aI219
aI1410
aa(lp38
I58
aI91
aI144
aI157
aI172
aI190
aI240
aI308
aI383
aI404
aI492
aI500
aI519
aI531
aI563
aI655
aI751
aI884
aI975
aI992
aI1019
aI1228
aI1233
aI1353
aI1359
aI1390
aI1417
aI1528
aI1535
aI1696
aI1725
aI1797
aI1811
aI1883
aI1944
aI1968
aI1057
aI549
aa(lp39
I10
aI94
aI104
aI185
aI524
aI562
aI578
aI598
aI650
aI653
aI845
aI927
aI1176
aI1205
aI1224
aI1362
aI1421
aI1477
aI1809
aI1919
aI483
aI1813
aI1557
aI232
aa(lp40
I9
aI114
aI126
aI156
aI161
aI164
aI227
aI280
aI310
aI349
aI362
aI367
aI389
aI391
aI473
aI505
aI554
aI584
aI594
aI615
aI624
aI628
aI644
aI663
aI708
aI728
aI759
aI806
aI831
aI855
aI877
aI903
aI910
aI915
aI929
aI966
aI982
aI983
aI984
aI1036
aI1053
aI1065
aI1098
aI1103
aI1124
aI1138
aI1143
aI1153
aI1187
aI1234
aI1244
aI1254
aI1293
aI1327
aI1341
aI1365
aI1367
aI1429
aI1446
aI1467
aI1534
aI1545
aI1588
aI1593
aI1598
aI1600
aI1612
aI1639
aI1647
aI1667
aI1699
aI1713
aI1737
aI1746
aI1752
aI1777
aI1785
aI1801
aI1815
aI1831
aI1844
aI1894
aI1920
aI1948
aI1969
aI1976
aI1984
aI1838
aI1975
aa(lp41
I27
aI32
aI121
aI155
aI225
aI316
aI360
aI403
aI431
aI480
aI529
aI579
aI597
aI699
aI710
aI768
aI883
aI888
aI897
aI898
aI988
aI1025
aI1034
aI1181
aI1237
aI1277
aI1411
aI1498
aI1507
aI1680
aI1701
aI1711
aI1716
aI1751
aI1965
aI123
aI1373
aa(lp42
I22
aI28
aI57
aI66
aI170
aI189
aI206
aI221
aI345
aI400
aI413
aI417
aI496
aI507
aI719
aI731
aI776
aI882
aI901
aI923
aI978
aI1173
aI1208
aI1257
aI1297
aI1388
aI1409
aI1418
aI1424
aI1506
aI1564
aI1614
aI1728
aI1758
aI1847
aI1876
aI1901
aI1906
aI1916
aI1926
aa(lp43
I207
aI208
aI277
aI384
aI390
aI409
aI683
aI843
aI917
aI1030
aI1198
aI1203
aI1245
aI1346
aI1355
aI1426
aI1441
aI1466
aI1577
aI1597
aI1635
aI1660
aI1662
aI1707
aI1731
aI1806
aI1923
aI1940
aI723
aa(lp44
I41
aI115
aI245
aI284
aI298
aI374
aI380
aI533
aI930
aI941
aI943
aI970
aI1169
aI1348
aI1384
aI1492
aI1505
aI1839
aI1842
aI1907
aI621
aI775
aa(lp45
I56
aI110
aI311
aI351
aI352
aI555
aI561
aI619
aI631
aI635
aI639
aI691
aI813
aI853
aI879
aI925
aI949
aI1004
aI1027
aI1061
aI1073
aI1099
aI1150
aI1161
aI1207
aI1452
aI1495
aI1520
aI1541
aI1591
aI1615
aI1641
aI1659
aI1670
aI1704
aI1771
aI1829
aI1845
aI1915
aI1927
aI1929
aa(lp46
I153
aI200
aI205
aI244
aI355
aI357
aI670
aI684
aI718
aI900
aI913
aI1032
aI1107
aI1121
aI1215
aI1227
aI1279
aI1338
aI1524
aI1589
aI1672
aI1677
aI1734
aI1743
aI1778
aI1893
aI1939
aI1963
aI862
aa(lp47
I26
aI42
aI47
aI105
aI171
aI202
aI204
aI222
aI333
aI429
aI441
aI547
aI588
aI592
aI620
aI786
aI869
aI920
aI1197
aI1255
aI1340
aI1368
aI1376
aI1450
aI1539
aI1582
aI1622
aI1852
aI1885
aI1950
aa(lp48
I95
aI143
aI226
aI241
aI474
aI582
aI616
aI724
aI725
aI736
aI746
aI986
aI998
aI1101
aI1111
aI1125
aI1191
aI1223
aI1309
aI1331
aI1401
aI1408
aI1430
aI1433
aI1584
aI1609
aI1744
aI1749
aI1804
aI1846
aI1867
aI643
aI17
aI1289
aI1775
aI1803
aa(lp49
I15
aI184
aI214
aI465
aI642
aI697
aI733
aI908
aI973
aI994
aI1049
aI1069
aI1075
aI1164
aI1194
aI1235
aI1294
aI1478
aI1509
aI1556
aI1581
aI1594
aI1619
aI1633
aI1646
aI1723
aI1788
aI1886
aI1982
aI1516
aa(lp50
I21
aI24
aI124
aI187
aI434
aI610
aI672
aI703
aI760
aI807
aI857
aI1002
aI1020
aI1158
aI1229
aI1302
aI1361
aI1455
aI1458
aI1461
aI1474
aI1655
aI1805
aI1827
aI1830
aI447
aI1084
aa(lp51
I11
aI45
aI72
aI92
aI98
aI120
aI131
aI132
aI137
aI186
aI247
aI255
aI268
aI292
aI294
aI301
aI303
aI320
aI356
aI361
aI371
aI378
aI425
aI427
aI437
aI451
aI472
aI487
aI488
aI506
aI530
aI532
aI550
aI569
aI595
aI602
aI609
aI626
aI712
aI741
aI749
aI767
aI817
aI837
aI842
aI844
aI854
aI887
aI889
aI942
aI971
aI990
aI1044
aI1078
aI1108
aI1168
aI1185
aI1259
aI1303
aI1325
aI1357
aI1380
aI1406
aI1470
aI1519
aI1583
aI1624
aI1625
aI1630
aI1657
aI1665
aI1685
aI1689
aI1693
aI1702
aI1732
aI1766
aI1791
aI1794
aI1819
aI1825
aI1859
aI1862
aI1898
aI1910
aI1928
aI1960
aI1971
aI1974
aI1996
aI1571
aI1086
aI1109
aa(lp52
I163
aI228
aI233
aI300
aI324
aI353
aI408
aI438
aI828
aI833
aI893
aI1008
aI1041
aI1131
aI1212
aI1354
aI1502
aI1521
aI1562
aI1592
aI1629
aI1643
aI1644
aI1681
aI1726
aI1753
aI1925
aI1932
aI743
aI641
aI851
aI1127
aI1810
aa(lp53
I3
aI18
aI33
aI36
aI51
aI252
aI270
aI325
aI334
aI422
aI449
aI611
aI652
aI717
aI839
aI870
aI950
aI957
aI1011
aI1110
aI1122
aI1126
aI1189
aI1249
aI1291
aI1311
aI1312
aI1482
aI1494
aI1587
aI1795
aI1913
aI1992
aI673
aI677
aI406
aI835
aI1664
aI296
aa(lp54
I1
aI145
aI162
aI600
aI730
aI827
aI1012
aI1014
aI1083
aI1435
aI1449
aI1610
aI1764
aI1776
aI1792
aI1880
aI335
aa(lp55
I109
aI459
aI514
aI596
aI640
aI774
aI911
aI1058
aI1129
aI1284
aI1287
aI1322
aI1412
aI1486
aI1490
aI1504
aI1676
aI1735
aI1779
aI1837
aI1955
aI1585
aa(lp56
I318
aI323
aI387
aI397
aI440
aI464
aI486
aI515
aI553
aI575
aI586
aI680
aI698
aI820
aI873
aI881
aI899
aI972
aI1046
aI1128
aI1174
aI1219
aI1275
aI1286
aI1332
aI1369
aI1374
aI1423
aI1457
aI1553
aI1579
aI1816
aI1904
aI565
aI1959
aI696
aI1953
aa(lp57
I74
aI166
aI462
aI666
aI803
aI1204
aI1366
aI1427
aI1514
aI1682
aI1738
aI1922
aI921
aI1258
aI1517
aa(lp58
I30
aI46
aI77
aI229
aI238
aI274
aI276
aI302
aI338
aI358
aI392
aI477
aI518
aI522
aI572
aI632
aI633
aI661
aI669
aI715
aI721
aI764
aI777
aI782
aI785
aI792
aI944
aI991
aI996
aI1040
aI1066
aI1382
aI1451
aI1532
aI1540
aI1627
aI1678
aI1695
aI1812
aI1817
aI1848
aI1878
aI1879
aI1891
aI1935
aI1952
aI1979
aI1741
aI1708
aa(lp59
I62
aI90
aI173
aI251
aI319
aI426
aI443
aI468
aI540
aI571
aI686
aI788
aI811
aI841
aI875
aI885
aI895
aI965
aI981
aI1000
aI1054
aI1133
aI1183
aI1196
aI1266
aI1387
aI1445
aI1526
aI1599
aI1747
aI1756
aI1937
aI1938
aI504
aa(lp60
I67
aI802
aI906
aI938
aI1037
aI1088
aI1116
aI1320
aI1549
aI1566
aI1606
aI1900
aI1966
aa(lp61
I2
aI350
aI366
aI372
aI388
aI484
aI605
aI629
aI711
aI769
aI824
aI850
aI958
aI1016
aI1042
aI1080
aI1090
aI1251
aI1306
aI1333
aI1336
aI1580
aI1762
aI1881
aI1895
aI1719
aa.